; ModuleID = 'bench/linux/original/i8237.ll'
source_filename = "bench/linux/original/i8237.ll"
target datalayout = "e-m:e-p270:32:32-p271:32:32-p272:64:64-i64:64-i128:128-f80:128-n8:16:32:64-S128"
target triple = "x86_64-unknown-linux-gnu"

module asm ".section\09\22.initcall6.init\22, \22a\22\09\09"
module asm "__initcall__kmod_i8237__168_76_i8237A_init_ops6:\09\09\09"
module asm ".long\09i8237A_init_ops - .\09"
module asm ".previous\09\09\09\09\09"

%struct.syscore_ops = type { %struct.list_head, ptr, ptr, ptr }
%struct.list_head = type { ptr, ptr }
%struct.spinlock = type { %union.anon }
%union.anon = type { %struct.raw_spinlock }
%struct.raw_spinlock = type { %struct.qspinlock }
%struct.qspinlock = type { %union.anon.0 }
%union.anon.0 = type { %struct.atomic_t }
%struct.atomic_t = type { i32 }

@__UNIQUE_ID___addressable_i8237A_init_ops169 = internal global ptr @i8237A_init_ops, section ".discard.addressable", align 8
@i8237_syscore_ops = internal global %struct.syscore_ops { %struct.list_head zeroinitializer, ptr null, ptr @i8237A_resume, ptr null }, align 8
@dma_spin_lock = external dso_local global %struct.spinlock, align 4
@llvm.compiler.used = appending global [1 x ptr] [ptr @__UNIQUE_ID___addressable_i8237A_init_ops169], section "llvm.metadata"

; Function Attrs: cold fn_ret_thunk_extern nounwind null_pointer_is_valid optsize
define internal noundef i32 @i8237A_init_ops() #0 section ".init.text" align 16 {
  %1 = tail call i8 asm sideeffect "inb ${1:w}, ${0:b}", "={ax},N{dx},~{dirflag},~{fpsr},~{flags}"(i16 135) #3, !srcloc !5
  %2 = icmp eq i8 %1, -1
  br i1 %2, label %9, label %3

3:                                                ; preds = %0
  %4 = tail call zeroext i1 @x86_pnpbios_disabled() #3
  br i1 %4, label %5, label %8

5:                                                ; preds = %3
  %6 = tail call i32 @dmi_get_bios_year() #3
  %7 = icmp sgt i32 %6, 2016
  br i1 %7, label %9, label %8

8:                                                ; preds = %5, %3
  tail call void @register_syscore_ops(ptr noundef nonnull @i8237_syscore_ops) #3
  br label %9

9:                                                ; preds = %8, %5, %0
  %10 = phi i32 [ 0, %8 ], [ -19, %0 ], [ -19, %5 ]
  ret i32 %10
}

; Function Attrs: null_pointer_is_valid
declare dso_local zeroext i1 @x86_pnpbios_disabled() local_unnamed_addr #1

; Function Attrs: null_pointer_is_valid
declare dso_local i32 @dmi_get_bios_year() local_unnamed_addr #1

; Function Attrs: null_pointer_is_valid
declare dso_local void @register_syscore_ops(ptr noundef) local_unnamed_addr #1

; Function Attrs: fn_ret_thunk_extern nounwind null_pointer_is_valid
define internal void @i8237A_resume() #2 align 16 {
  %1 = tail call i64 @_raw_spin_lock_irqsave(ptr noundef nonnull @dma_spin_lock) #3
  tail call void asm sideeffect "outb ${0:b}, ${1:w}", "{ax},N{dx},~{dirflag},~{fpsr},~{flags}"(i8 0, i16 13) #3, !srcloc !6
  tail call void asm sideeffect "outb ${0:b}, ${1:w}", "{ax},N{dx},~{dirflag},~{fpsr},~{flags}"(i8 0, i16 218) #3, !srcloc !6
  br label %2

2:                                                ; preds = %21, %0
  %3 = phi i32 [ 0, %0 ], [ %22, %21 ]
  switch i32 %3, label %15 [
    i32 0, label %4
    i32 1, label %5
    i32 2, label %6
    i32 3, label %7
    i32 5, label %8
    i32 6, label %9
    i32 7, label %10
  ]

4:                                                ; preds = %2
  tail call void asm sideeffect "outb ${0:b}, ${1:w}", "{ax},N{dx},~{dirflag},~{fpsr},~{flags}"(i8 0, i16 135) #3, !srcloc !6
  br label %11

5:                                                ; preds = %2
  tail call void asm sideeffect "outb ${0:b}, ${1:w}", "{ax},N{dx},~{dirflag},~{fpsr},~{flags}"(i8 0, i16 131) #3, !srcloc !6
  br label %11

6:                                                ; preds = %2
  tail call void asm sideeffect "outb ${0:b}, ${1:w}", "{ax},N{dx},~{dirflag},~{fpsr},~{flags}"(i8 0, i16 129) #3, !srcloc !6
  br label %11

7:                                                ; preds = %2
  tail call void asm sideeffect "outb ${0:b}, ${1:w}", "{ax},N{dx},~{dirflag},~{fpsr},~{flags}"(i8 0, i16 130) #3, !srcloc !6
  br label %11

8:                                                ; preds = %2
  tail call void asm sideeffect "outb ${0:b}, ${1:w}", "{ax},N{dx},~{dirflag},~{fpsr},~{flags}"(i8 0, i16 139) #3, !srcloc !6
  br label %15

9:                                                ; preds = %2
  tail call void asm sideeffect "outb ${0:b}, ${1:w}", "{ax},N{dx},~{dirflag},~{fpsr},~{flags}"(i8 0, i16 137) #3, !srcloc !6
  br label %15

10:                                               ; preds = %2
  tail call void asm sideeffect "outb ${0:b}, ${1:w}", "{ax},N{dx},~{dirflag},~{fpsr},~{flags}"(i8 0, i16 138) #3, !srcloc !6
  br label %15

11:                                               ; preds = %7, %6, %5, %4
  %12 = trunc i32 %3 to i16
  %13 = shl nuw nsw i16 %12, 1
  tail call void asm sideeffect "outb ${0:b}, ${1:w}", "{ax},N{dx},~{dirflag},~{fpsr},~{flags}"(i8 0, i16 %13) #3, !srcloc !6
  tail call void asm sideeffect "outb ${0:b}, ${1:w}", "{ax},N{dx},~{dirflag},~{fpsr},~{flags}"(i8 0, i16 %13) #3, !srcloc !6
  %14 = or disjoint i16 %13, 1
  tail call void asm sideeffect "outb ${0:b}, ${1:w}", "{ax},N{dx},~{dirflag},~{fpsr},~{flags}"(i8 0, i16 %14) #3, !srcloc !6
  tail call void asm sideeffect "outb ${0:b}, ${1:w}", "{ax},N{dx},~{dirflag},~{fpsr},~{flags}"(i8 0, i16 %14) #3, !srcloc !6
  br label %21

15:                                               ; preds = %10, %9, %8, %2
  %16 = trunc i32 %3 to i16
  %17 = shl nuw nsw i16 %16, 2
  %18 = and i16 %17, 12
  %19 = or disjoint i16 %18, 192
  tail call void asm sideeffect "outb ${0:b}, ${1:w}", "{ax},N{dx},~{dirflag},~{fpsr},~{flags}"(i8 0, i16 %19) #3, !srcloc !6
  tail call void asm sideeffect "outb ${0:b}, ${1:w}", "{ax},N{dx},~{dirflag},~{fpsr},~{flags}"(i8 0, i16 %19) #3, !srcloc !6
  %20 = or disjoint i16 %18, 194
  tail call void asm sideeffect "outb ${0:b}, ${1:w}", "{ax},N{dx},~{dirflag},~{fpsr},~{flags}"(i8 0, i16 %20) #3, !srcloc !6
  tail call void asm sideeffect "outb ${0:b}, ${1:w}", "{ax},N{dx},~{dirflag},~{fpsr},~{flags}"(i8 0, i16 %20) #3, !srcloc !6
  br label %21

21:                                               ; preds = %15, %11
  %22 = add nuw nsw i32 %3, 1
  %23 = icmp eq i32 %22, 8
  br i1 %23, label %24, label %2, !llvm.loop !7

24:                                               ; preds = %21
  tail call void asm sideeffect "outb ${0:b}, ${1:w}", "{ax},N{dx},~{dirflag},~{fpsr},~{flags}"(i8 0, i16 212) #3, !srcloc !6
  tail call void @_raw_spin_unlock_irqrestore(ptr noundef nonnull @dma_spin_lock, i64 noundef %1) #3
  ret void
}

; Function Attrs: null_pointer_is_valid
declare dso_local i64 @_raw_spin_lock_irqsave(ptr noundef) local_unnamed_addr #1 section ".spinlock.text"

; Function Attrs: null_pointer_is_valid
declare dso_local void @_raw_spin_unlock_irqrestore(ptr noundef, i64 noundef) local_unnamed_addr #1 section ".spinlock.text"


!llvm.module.flags = !{!0, !1, !2, !3, !4}

!0 = !{i32 1, !"wchar_size", i32 2}
!1 = !{i32 8, !"cf-protection-branch", i32 1}
!2 = !{i32 4, !"function_return_thunk_extern", i32 1}
!3 = !{i32 4, !"indirect_branch_cs_prefix", i32 1}
!4 = !{i32 4, !"SkipRaxSetup", i32 1}
!5 = !{i64 2151833281}
!6 = !{i64 2151833085}
!7 = distinct !{!7, !8, !9}
!8 = !{!"llvm.loop.mustprogress"}
!9 = !{!"llvm.loop.unroll.disable"}
